target datalayout = "e-m:e-p270:32:32-p271:32:32-p272:64:64-i64:64-i128:128-f80:128-n8:16:32:64-S128"
target triple = "x86_64-unknown-linux-gnu"

%struct.QemuMutex = type { %union.pthread_mutex_t, i8 }
%union.pthread_mutex_t = type { %struct.__pthread_mutex_s }
%struct.__pthread_mutex_s = type { i32, i32, i32, i32, i32, i16, i16, %struct.__pthread_internal_list }
%struct.__pthread_internal_list = type { ptr, ptr }
%struct.MigrationIncomingState = type { ptr, [2 x ptr], ptr, ptr, %struct.QemuSemaphore, %struct.QemuEvent, %struct.AnnounceTimer, i64, i8, %struct.QemuThread, i8, i8, %struct.QemuThread, i32, i32, ptr, %struct.QemuMutex, ptr, i32, ptr, %struct.QemuSemaphore, %struct.QemuThread, i32, %struct.QemuMutex, ptr, ptr, ptr, ptr, i32, ptr, ptr, %struct.QemuSemaphore, ptr, %struct.QemuSemaphore, %struct.QemuSemaphore, %struct.QemuSemaphore, ptr, ptr, i32, %struct.QemuMutex, %struct.QemuCond, i32 }
%struct.QemuEvent = type { i32, i8 }
%struct.AnnounceTimer = type { ptr, %struct.AnnounceParameters, i32, i32 }
%struct.AnnounceParameters = type { i64, i64, i64, i64, i8, ptr, ptr }
%struct.QemuThread = type { i64 }
%struct.QemuSemaphore = type { %struct.QemuMutex, %struct.QemuCond, i32 }
%struct.QemuCond = type { %union.pthread_cond_t, i8 }
%union.pthread_cond_t = type { %struct.__pthread_cond_s }
%struct.__pthread_cond_s = type { %union.__atomic_wide_counter, %union.__atomic_wide_counter, [2 x i32], [2 x i32], i32, i32, [2 x i32] }
%union.__atomic_wide_counter = type { i64 }
%struct.PostCopyFD = type { i32, ptr, ptr, ptr, ptr }
%struct._GArray = type { ptr, i32 }
%struct.timeval = type { i64, i64 }

@.str.17 = private unnamed_addr constant [21 x i8] c"%s: %s zero host: %p\00", align 1
@__func__.postcopy_place_page_zero = private unnamed_addr constant [25 x i8] c"postcopy_place_page_zero\00", align 1
@trace_events_enabled_count = external global i32, align 4
@message_with_timestamp = external global i8, align 1
@qemu_loglevel = external global i32, align 4
@_TRACE_POSTCOPY_PLACE_PAGE_ZERO_DSTATE = external global i16, align 2
@.str.98 = private unnamed_addr constant [47 x i8] c"%d@%zu.%06zu:postcopy_place_page_zero host=%p\0A\00", align 1
@.str.99 = private unnamed_addr constant [34 x i8] c"postcopy_place_page_zero host=%p\0A\00", align 1

; Function Attrs: nounwind sspstrong uwtable
define internal zeroext i1 @qemu_loglevel_mask(i32 noundef %mask) #0 {
entry:
  %mask.addr = alloca i32, align 4
  store i32 %mask, ptr %mask.addr, align 4
  %0 = load i32, ptr @qemu_loglevel, align 4
  %1 = load i32, ptr %mask.addr, align 4
  %and = and i32 %0, %1
  %cmp = icmp ne i32 %and, 0
  ret i1 %cmp
}

; Function Attrs: nounwind sspstrong uwtable
define internal void @_nocheck__trace_postcopy_place_page_zero(ptr noundef %host_addr) #0 {
entry:
  %host_addr.addr = alloca ptr, align 8
  %_now = alloca %struct.timeval, align 8
  store ptr %host_addr, ptr %host_addr.addr, align 8
  %0 = load i32, ptr @trace_events_enabled_count, align 4
  %tobool = icmp ne i32 %0, 0
  %lnot = xor i1 %tobool, true
  %lnot1 = xor i1 %lnot, true
  %lnot.ext = zext i1 %lnot1 to i32
  %conv = sext i32 %lnot.ext to i64
  %tobool2 = icmp ne i64 %conv, 0
  br i1 %tobool2, label %land.lhs.true, label %if.end11

land.lhs.true:                                    ; preds = %entry
  %1 = load i16, ptr @_TRACE_POSTCOPY_PLACE_PAGE_ZERO_DSTATE, align 2
  %conv3 = zext i16 %1 to i32
  %tobool4 = icmp ne i32 %conv3, 0
  br i1 %tobool4, label %land.lhs.true5, label %if.end11

land.lhs.true5:                                   ; preds = %land.lhs.true
  %call = call zeroext i1 @qemu_loglevel_mask(i32 noundef 32768)
  br i1 %call, label %if.then, label %if.end11

if.then:                                          ; preds = %land.lhs.true5
  %2 = load i8, ptr @message_with_timestamp, align 1
  %tobool7 = trunc i8 %2 to i1
  br i1 %tobool7, label %if.then8, label %if.else

if.then8:                                         ; preds = %if.then
  %call9 = call i32 @gettimeofday(ptr noundef %_now, ptr noundef null) #11
  %call10 = call i32 @qemu_get_thread_id()
  %tv_sec = getelementptr inbounds %struct.timeval, ptr %_now, i32 0, i32 0
  %3 = load i64, ptr %tv_sec, align 8
  %tv_usec = getelementptr inbounds %struct.timeval, ptr %_now, i32 0, i32 1
  %4 = load i64, ptr %tv_usec, align 8
  %5 = load ptr, ptr %host_addr.addr, align 8
  call void (ptr, ...) @qemu_log(ptr noundef @.str.98, i32 noundef %call10, i64 noundef %3, i64 noundef %4, ptr noundef %5)
  br label %if.end

if.else:                                          ; preds = %if.then
  %6 = load ptr, ptr %host_addr.addr, align 8
  call void (ptr, ...) @qemu_log(ptr noundef @.str.99, ptr noundef %6)
  br label %if.end

if.end:                                           ; preds = %if.else, %if.then8
  br label %if.end11

if.end11:                                         ; preds = %if.end, %land.lhs.true5, %land.lhs.true, %entry
  ret void
}

; Function Attrs: nounwind sspstrong uwtable
define dso_local i32 @postcopy_notify_shared_wake(ptr noundef %rb, i64 noundef %offset) #0 {
entry:
  %retval = alloca i32, align 4
  %rb.addr = alloca ptr, align 8
  %offset.addr = alloca i64, align 8
  %i = alloca i32, align 4
  %mis = alloca ptr, align 8
  %pcrfds = alloca ptr, align 8
  %cur = alloca ptr, align 8
  %ret = alloca i32, align 4
  store ptr %rb, ptr %rb.addr, align 8
  store i64 %offset, ptr %offset.addr, align 8
  %call = call ptr @migration_incoming_get_current()
  store ptr %call, ptr %mis, align 8
  %0 = load ptr, ptr %mis, align 8
  %postcopy_remote_fds = getelementptr inbounds %struct.MigrationIncomingState, ptr %0, i32 0, i32 26
  %1 = load ptr, ptr %postcopy_remote_fds, align 8
  store ptr %1, ptr %pcrfds, align 8
  store i32 0, ptr %i, align 4
  br label %for.cond

for.cond:                                         ; preds = %for.inc, %entry
  %2 = load i32, ptr %i, align 4
  %3 = load ptr, ptr %pcrfds, align 8
  %len = getelementptr inbounds %struct._GArray, ptr %3, i32 0, i32 1
  %4 = load i32, ptr %len, align 8
  %cmp = icmp ult i32 %2, %4
  br i1 %cmp, label %for.body, label %for.end

for.body:                                         ; preds = %for.cond
  %5 = load ptr, ptr %pcrfds, align 8
  %data = getelementptr inbounds %struct._GArray, ptr %5, i32 0, i32 0
  %6 = load ptr, ptr %data, align 8
  %7 = load i32, ptr %i, align 4
  %idxprom = sext i32 %7 to i64
  %arrayidx = getelementptr %struct.PostCopyFD, ptr %6, i64 %idxprom
  store ptr %arrayidx, ptr %cur, align 8
  %8 = load ptr, ptr %cur, align 8
  %waker = getelementptr inbounds %struct.PostCopyFD, ptr %8, i32 0, i32 3
  %9 = load ptr, ptr %waker, align 8
  %10 = load ptr, ptr %cur, align 8
  %11 = load ptr, ptr %rb.addr, align 8
  %12 = load i64, ptr %offset.addr, align 8
  %call1 = call i32 %9(ptr noundef %10, ptr noundef %11, i64 noundef %12)
  store i32 %call1, ptr %ret, align 4
  %13 = load i32, ptr %ret, align 4
  %tobool = icmp ne i32 %13, 0
  br i1 %tobool, label %if.then, label %if.end

if.then:                                          ; preds = %for.body
  %14 = load i32, ptr %ret, align 4
  store i32 %14, ptr %retval, align 4
  br label %return

if.end:                                           ; preds = %for.body
  br label %for.inc

for.inc:                                          ; preds = %if.end
  %15 = load i32, ptr %i, align 4
  %inc = add i32 %15, 1
  store i32 %inc, ptr %i, align 4
  br label %for.cond, !llvm.loop !17

for.end:                                          ; preds = %for.cond
  store i32 0, ptr %retval, align 4
  br label %return

return:                                           ; preds = %for.end, %if.then
  %16 = load i32, ptr %retval, align 4
  ret i32 %16
}

; Function Attrs: nounwind sspstrong uwtable
define internal void @trace_postcopy_place_page_zero(ptr noundef %host_addr) #0 {
entry:
  %host_addr.addr = alloca ptr, align 8
  store ptr %host_addr, ptr %host_addr.addr, align 8
  %0 = load ptr, ptr %host_addr.addr, align 8
  call void @_nocheck__trace_postcopy_place_page_zero(ptr noundef %0)
  ret void
}

; Function Attrs: nounwind sspstrong uwtable
define dso_local i32 @postcopy_place_page_zero(ptr noundef %mis, ptr noundef %host, ptr noundef %rb) #0 {
entry:
  %retval = alloca i32, align 4
  %mis.addr = alloca ptr, align 8
  %host.addr = alloca ptr, align 8
  %rb.addr = alloca ptr, align 8
  %pagesize = alloca i64, align 8
  %e = alloca i32, align 4
  store ptr %mis, ptr %mis.addr, align 8
  store ptr %host, ptr %host.addr, align 8
  store ptr %rb, ptr %rb.addr, align 8
  %0 = load ptr, ptr %rb.addr, align 8
  %call = call i64 @qemu_ram_pagesize(ptr noundef %0)
  store i64 %call, ptr %pagesize, align 8
  %1 = load ptr, ptr %host.addr, align 8
  call void @trace_postcopy_place_page_zero(ptr noundef %1)
  %2 = load ptr, ptr %rb.addr, align 8
  %call1 = call zeroext i1 @qemu_ram_is_uf_zeroable(ptr noundef %2)
  br i1 %call1, label %if.then, label %if.else

if.then:                                          ; preds = %entry
  %3 = load ptr, ptr %mis.addr, align 8
  %4 = load ptr, ptr %host.addr, align 8
  %5 = load i64, ptr %pagesize, align 8
  %6 = load ptr, ptr %rb.addr, align 8
  %call2 = call i32 @qemu_ufd_copy_ioctl(ptr noundef %3, ptr noundef %4, ptr noundef null, i64 noundef %5, ptr noundef %6)
  %tobool = icmp ne i32 %call2, 0
  br i1 %tobool, label %if.then3, label %if.end

if.then3:                                         ; preds = %if.then
  %call4 = call ptr @__errno_location() #10
  %7 = load i32, ptr %call4, align 4
  store i32 %7, ptr %e, align 4
  %8 = load i32, ptr %e, align 4
  %call5 = call ptr @strerror(i32 noundef %8) #11
  %9 = load ptr, ptr %host.addr, align 8
  call void (ptr, ...) @error_report(ptr noundef @.str.17, ptr noundef @__func__.postcopy_place_page_zero, ptr noundef %call5, ptr noundef %9)
  %10 = load i32, ptr %e, align 4
  %sub = sub i32 0, %10
  store i32 %sub, ptr %retval, align 4
  br label %return

if.end:                                           ; preds = %if.then
  %11 = load ptr, ptr %rb.addr, align 8
  %12 = load ptr, ptr %rb.addr, align 8
  %13 = load ptr, ptr %host.addr, align 8
  %call6 = call i64 @qemu_ram_block_host_offset(ptr noundef %12, ptr noundef %13)
  %call7 = call i32 @postcopy_notify_shared_wake(ptr noundef %11, i64 noundef %call6)
  store i32 %call7, ptr %retval, align 4
  br label %return

if.else:                                          ; preds = %entry
  %14 = load ptr, ptr %mis.addr, align 8
  %15 = load ptr, ptr %host.addr, align 8
  %16 = load ptr, ptr %mis.addr, align 8
  %postcopy_tmp_zero_page = getelementptr inbounds %struct.MigrationIncomingState, ptr %16, i32 0, i32 25
  %17 = load ptr, ptr %postcopy_tmp_zero_page, align 8
  %18 = load ptr, ptr %rb.addr, align 8
  %call8 = call i32 @postcopy_place_page(ptr noundef %14, ptr noundef %15, ptr noundef %17, ptr noundef %18)
  store i32 %call8, ptr %retval, align 4
  br label %return

return:                                           ; preds = %if.else, %if.end, %if.then3
  %19 = load i32, ptr %retval, align 4
  ret i32 %19
}