; Function Attrs: nounwind sspstrong uwtable
define dso_local i32 @postcopy_place_page_zero(ptr noundef %mis, ptr noundef %host, ptr noundef %rb) local_unnamed_addr #0 {
entry:
  %_now.i.i = alloca %struct.timeval, align 8
  %call = tail call i64 @qemu_ram_pagesize(ptr noundef %rb) #16
  call void @llvm.lifetime.start.p0(i64 16, ptr nonnull %_now.i.i)
  %0 = load i32, ptr @trace_events_enabled_count, align 4
  %tobool.i.i = icmp ne i32 %0, 0
  %1 = load i16, ptr @_TRACE_POSTCOPY_PLACE_PAGE_ZERO_DSTATE, align 2
  %tobool4.i.i = icmp ne i16 %1, 0
  %or.cond.i.i = select i1 %tobool.i.i, i1 %tobool4.i.i, i1 false
  br i1 %or.cond.i.i, label %land.lhs.true5.i.i, label %trace_postcopy_place_page_zero.exit

land.lhs.true5.i.i:                               ; preds = %entry
  %2 = load i32, ptr @qemu_loglevel, align 4
  %and.i.i.i = and i32 %2, 32768
  %cmp.i.not.i.i = icmp eq i32 %and.i.i.i, 0
  br i1 %cmp.i.not.i.i, label %trace_postcopy_place_page_zero.exit, label %if.then.i.i

if.then.i.i:                                      ; preds = %land.lhs.true5.i.i
  %3 = load i8, ptr @message_with_timestamp, align 1
  %tobool7.i.i = trunc i8 %3 to i1
  br i1 %tobool7.i.i, label %if.then8.i.i, label %if.else.i.i

if.then8.i.i:                                     ; preds = %if.then.i.i
  %call9.i.i = call i32 @gettimeofday(ptr noundef nonnull %_now.i.i, ptr noundef null) #16
  %call10.i.i = tail call i32 @qemu_get_thread_id() #16
  %4 = load i64, ptr %_now.i.i, align 8
  %tv_usec.i.i = getelementptr inbounds nuw i8, ptr %_now.i.i, i64 8
  %5 = load i64, ptr %tv_usec.i.i, align 8
  tail call void (ptr, ...) @qemu_log(ptr noundef nonnull @.str.98, i32 noundef %call10.i.i, i64 noundef %4, i64 noundef %5, ptr noundef %host) #16
  br label %trace_postcopy_place_page_zero.exit

if.else.i.i:                                      ; preds = %if.then.i.i
  tail call void (ptr, ...) @qemu_log(ptr noundef nonnull @.str.99, ptr noundef %host) #16
  br label %trace_postcopy_place_page_zero.exit

trace_postcopy_place_page_zero.exit:              ; preds = %entry, %land.lhs.true5.i.i, %if.then8.i.i, %if.else.i.i
  call void @llvm.lifetime.end.p0(i64 16, ptr nonnull %_now.i.i)
  %call1 = tail call zeroext i1 @qemu_ram_is_uf_zeroable(ptr noundef %rb) #16
  br i1 %call1, label %if.then, label %if.else

if.then:                                          ; preds = %trace_postcopy_place_page_zero.exit
  %call2 = tail call fastcc i32 @qemu_ufd_copy_ioctl(ptr noundef %mis, ptr noundef %host, ptr noundef null, i64 noundef %call, ptr noundef %rb)
  %tobool.not = icmp eq i32 %call2, 0
  br i1 %tobool.not, label %if.end, label %if.then3

if.then3:                                         ; preds = %if.then
  %call4 = tail call ptr @__errno_location() #18
  %6 = load i32, ptr %call4, align 4
  %call5 = tail call ptr @strerror(i32 noundef %6) #16
  tail call void (ptr, ...) @error_report(ptr noundef nonnull @.str.17, ptr noundef nonnull @__func__.postcopy_place_page_zero, ptr noundef %call5, ptr noundef %host) #16
  %sub = sub i32 0, %6
  br label %return

if.end:                                           ; preds = %if.then
  %call6 = tail call i64 @qemu_ram_block_host_offset(ptr noundef %rb, ptr noundef %host) #16
  %call.i = tail call ptr @migration_incoming_get_current() #16
  %postcopy_remote_fds.i = getelementptr inbounds nuw i8, ptr %call.i, i64 552
  %7 = load ptr, ptr %postcopy_remote_fds.i, align 8
  %len.i = getelementptr inbounds nuw i8, ptr %7, i64 8
  %8 = load i32, ptr %len.i, align 8
  %cmp6.not.i = icmp eq i32 %8, 0
  br i1 %cmp6.not.i, label %return, label %for.body.i

for.cond.i:                                       ; preds = %for.body.i
  %inc.i = add nuw i32 %i.07.i, 1
  %9 = load i32, ptr %len.i, align 8
  %cmp.i = icmp ult i32 %inc.i, %9
  br i1 %cmp.i, label %for.body.i, label %return, !llvm.loop !19

for.body.i:                                       ; preds = %if.end, %for.cond.i
  %i.07.i = phi i32 [ %inc.i, %for.cond.i ], [ 0, %if.end ]
  %10 = load ptr, ptr %7, align 8
  %idxprom.i = sext i32 %i.07.i to i64
  %arrayidx.i = getelementptr %struct.PostCopyFD, ptr %10, i64 %idxprom.i
  %waker.i = getelementptr inbounds nuw i8, ptr %arrayidx.i, i64 24
  %11 = load ptr, ptr %waker.i, align 8
  %call1.i = tail call i32 %11(ptr noundef %arrayidx.i, ptr noundef %rb, i64 noundef %call6) #16
  %tobool.not.i = icmp eq i32 %call1.i, 0
  br i1 %tobool.not.i, label %for.cond.i, label %return

if.else:                                          ; preds = %trace_postcopy_place_page_zero.exit
  %postcopy_tmp_zero_page = getelementptr inbounds nuw i8, ptr %mis, i64 544
  %12 = load ptr, ptr %postcopy_tmp_zero_page, align 8
  %call8 = tail call i32 @postcopy_place_page(ptr noundef %mis, ptr noundef %host, ptr noundef %12, ptr noundef %rb)
  br label %return

return:                                           ; preds = %for.body.i, %for.cond.i, %if.end, %if.else, %if.then3
  %retval.0 = phi i32 [ %sub, %if.then3 ], [ %call8, %if.else ], [ 0, %if.end ], [ %call1.i, %for.body.i ], [ 0, %for.cond.i ]
  ret i32 %retval.0
}